(lp0
(dp1
S's'
p2
I13
sS't'
p3
I0
sacdatetime
date
p4
(S'\x07\xde\x03\r'
p5
tp6
Rp7
a.(lp0
(dp1
S's'
p2
I14
sS't'
p3
I0
sacdatetime
date
p4
(S'\x07\xde\x03\r'
p5
tp6
Rp7
a.(lp0
(dp1
S's'
p2
I15
sS't'
p3
I0
sacdatetime
date
p4
(S'\x07\xde\x03\r'
p5
tp6
Rp7
a.(lp0
(dp1
S's'
p2
I15
sS't'
p3
I1
sacdatetime
date
p4
(S'\x07\xde\x03\r'
p5
tp6
Rp7
a.(lp0
(dp1
S's'
p2
I20
sS't'
p3
I0
sacdatetime
date
p4
(S'\x07\xde\x03\r'
p5
tp6
Rp7
a.(lp0
(dp1
S's'
p2
I25
sS't'
p3
I0
sacdatetime
date
p4
(S'\x07\xde\x03\r'
p5
tp6
Rp7
a.(lp0
(dp1
S's'
p2
I13
sS't'
p3
I0
sacdatetime
date
p4
(S'\x07\xde\x03\r'
p5
tp6
Rp7
a.(lp0
(dp1
S's'
p2
I13
sS't'
p3
I0
sacdatetime
date
p4
(S'\x07\xde\x03\x0f'
p5
tp6
Rp7
a.(lp0
(dp1
S's'
p2
I13
sS't'
p3
I0
sacdatetime
date
p4
(S'\x07\xde\x03\x0f'
p5
tp6
Rp7
a.(lp0
(dp1
S's'
p2
I13
sS't'
p3
I0
sacdatetime
date
p4
(S'\x07\xde\x03\x0f'
p5
tp6
Rp7
a.(lp0
(dp1
S's'
p2
I13
sS't'
p3
I0
sacdatetime
date
p4
(S'\x07\xde\x03\x0f'
p5
tp6
Rp7
a.(lp0
(dp1
S's'
p2
I13
sS't'
p3
I0
sacdatetime
date
p4
(S'\x07\xde\x03\x0f'
p5
tp6
Rp7
a.(lp0
(dp1
S's'
p2
I13
sS't'
p3
I0
sacdatetime
date
p4
(S'\x07\xde\x03\x0f'
p5
tp6
Rp7
a.(lp0
(dp1
S's'
p2
I13
sS't'
p3
I0
sacdatetime
date
p4
(S'\x07\xde\x03\x0f'
p5
tp6
Rp7
a.(lp0
(dp1
S's'
p2
I13
sS't'
p3
I0
sacdatetime
date
p4
(S'\x07\xde\x03\x0f'
p5
tp6
Rp7
a.(lp0
(dp1
S's'
p2
I13
sS't'
p3
I0
sacdatetime
date
p4
(S'\x07\xde\x03\x0f'
p5
tp6
Rp7
a.(lp0
(dp1
S's'
p2
I13
sS't'
p3
I0
sacdatetime
date
p4
(S'\x07\xde\x03\x0f'
p5
tp6
Rp7
a.(lp0
(dp1
S's'
p2
I13
sS't'
p3
I0
sacdatetime
date
p4
(S'\x07\xde\x03\x0f'
p5
tp6
Rp7
a.(lp0
(dp1
S's'
p2
I13
sS't'
p3
I0
sacdatetime
date
p4
(S'\x07\xde\x03\x0f'
p5
tp6
Rp7
a.(lp0
(dp1
S's'
p2
I13
sS't'
p3
I0
sacdatetime
date
p4
(S'\x07\xde\x03\x0f'
p5
tp6
Rp7
a.(lp0
(dp1
S's'
p2
I13
sS't'
p3
I0
sacdatetime
date
p4
(S'\x07\xde\x03\x0f'
p5
tp6
Rp7
a.(lp0
(dp1
S's'
p2
I13
sS't'
p3
I0
sacdatetime
date
p4
(S'\x07\xde\x03\x0f'
p5
tp6
Rp7
a.(lp0
(dp1
S's'
p2
I13
sS't'
p3
I0
sacdatetime
date
p4
(S'\x07\xde\x03\x0f'
p5
tp6
Rp7
a.(lp0
(dp1
S's'
p2
I13
sS't'
p3
I0
sacdatetime
date
p4
(S'\x07\xde\x03\x0f'
p5
tp6
Rp7
a.(lp0
(dp1
S's'
p2
I13
sS't'
p3
I0
sacdatetime
date
p4
(S'\x07\xde\x03\x0f'
p5
tp6
Rp7
a.(lp0
(dp1
S's'
p2
I13
sS't'
p3
I0
sacdatetime
date
p4
(S'\x07\xde\x03\x0f'
p5
tp6
Rp7
a.(lp0
(dp1
S's'
p2
I13
sS't'
p3
I0
sacdatetime
date
p4
(S'\x07\xde\x03\x0f'
p5
tp6
Rp7
a.(lp0
(dp1
S's'
p2
I13
sS't'
p3
I0
sacdatetime
date
p4
(S'\x07\xde\x03\x0f'
p5
tp6
Rp7
a.(lp0
(dp1
S's'
p2
I13
sS't'
p3
I0
sacdatetime
date
p4
(S'\x07\xde\x03\x0f'
p5
tp6
Rp7
a.(lp0
(dp1
S's'
p2
I13
sS't'
p3
I0
sacdatetime
date
p4
(S'\x07\xde\x03\x0f'
p5
tp6
Rp7
a.(lp0
(dp1
S's'
p2
I13
sS't'
p3
I0
sacdatetime
date
p4
(S'\x07\xde\x03\x0f'
p5
tp6
Rp7
a.(lp0
(dp1
S's'
p2
I13
sS't'
p3
I0
sacdatetime
date
p4
(S'\x07\xde\x03\x0f'
p5
tp6
Rp7
a.(lp0
(dp1
S's'
p2
I13
sS't'
p3
I0
sacdatetime
date
p4
(S'\x07\xde\x03\x0f'
p5
tp6
Rp7
a.(lp0
(dp1
S's'
p2
I13
sS't'
p3
I0
sacdatetime
date
p4
(S'\x07\xde\x03\x0f'
p5
tp6
Rp7
a.(lp0
(dp1
S's'
p2
I13
sS't'
p3
I0
sacdatetime
date
p4
(S'\x07\xde\x03\x0f'
p5
tp6
Rp7
a.(lp0
(dp1
S's'
p2
I13
sS't'
p3
I0
sacdatetime
date
p4
(S'\x07\xde\x03\x0f'
p5
tp6
Rp7
a.(lp0
(dp1
S's'
p2
I13
sS't'
p3
I0
sacdatetime
date
p4
(S'\x07\xde\x03\x0f'
p5
tp6
Rp7
a.(lp0
(dp1
S's'
p2
I13
sS't'
p3
I0
sacdatetime
date
p4
(S'\x07\xde\x03\x0f'
p5
tp6
Rp7
a.(lp0
(dp1
S's'
p2
I13
sS't'
p3
I0
sacdatetime
date
p4
(S'\x07\xde\x03\x0f'
p5
tp6
Rp7
a.(lp0
(dp1
S's'
p2
I13
sS't'
p3
I0
sacdatetime
date
p4
(S'\x07\xde\x03\x0f'
p5
tp6
Rp7
a.(lp0
(dp1
S's'
p2
I13
sS't'
p3
I0
sacdatetime
date
p4
(S'\x07\xde\x03\x0f'
p5
tp6
Rp7
a.(lp0
(dp1
S's'
p2
I13
sS't'
p3
I0
sacdatetime
date
p4
(S'\x07\xde\x03\x0f'
p5
tp6
Rp7
a.(lp0
(dp1
S's'
p2
I13
sS't'
p3
I0
sacdatetime
date
p4
(S'\x07\xde\x03\x0f'
p5
tp6
Rp7
a.(lp0
(dp1
S's'
p2
I13
sS't'
p3
I0
sacdatetime
date
p4
(S'\x07\xde\x03\x0f'
p5
tp6
Rp7
a.(lp0
(dp1
S's'
p2
I13
sS't'
p3
I0
sacdatetime
date
p4
(S'\x07\xde\x03\x0f'
p5
tp6
Rp7
a.(lp0
(dp1
S's'
p2
I13
sS't'
p3
I0
sacdatetime
date
p4
(S'\x07\xde\x03\x0f'
p5
tp6
Rp7
a.(lp0
(dp1
S's'
p2
I13
sS't'
p3
I0
sacdatetime
date
p4
(S'\x07\xde\x03\x0f'
p5
tp6
Rp7
a.(lp0
(dp1
S's'
p2
I13
sS't'
p3
I0
sacdatetime
date
p4
(S'\x07\xde\x03\x0f'
p5
tp6
Rp7
a.(lp0
(dp1
S's'
p2
I13
sS't'
p3
I0
sacdatetime
date
p4
(S'\x07\xde\x03\x0f'
p5
tp6
Rp7
a.(lp0
(dp1
S's'
p2
I13
sS't'
p3
I0
sacdatetime
date
p4
(S'\x07\xde\x03\x0f'
p5
tp6
Rp7
a.(lp0
(dp1
S's'
p2
I13
sS't'
p3
I0
sacdatetime
date
p4
(S'\x07\xde\x03\x0f'
p5
tp6
Rp7
a.(lp0
(dp1
S's'
p2
I7
sS't'
p3
I0
sacdatetime
date
p4
(S'\x07\xde\x03\x0f'
p5
tp6
Rp7
a.