(lp0
(dp1
S's'
p2
I5
sS't'
p3
I10
sacdatetime
date
p4
(S'\x07\xde\x04\x0b'
p5
tp6
Rp7
a.(lp0
(dp1
S's'
p2
I5
sS't'
p3
I10
sacdatetime
date
p4
(S'\x07\xde\x04\x0b'
p5
tp6
Rp7
a.(lp0
(dp1
S's'
p2
I5
sS't'
p3
I10
sacdatetime
date
p4
(S'\x07\xde\x04\x0b'
p5
tp6
Rp7
a.(lp0
(dp1
S's'
p2
I5
sS't'
p3
I10
sacdatetime
date
p4
(S'\x07\xde\x04\x0b'
p5
tp6
Rp7
a.(lp0
(dp1
S's'
p2
I5
sS't'
p3
I10
sacdatetime
date
p4
(S'\x07\xde\x04\x0b'
p5
tp6
Rp7
a.(lp0
(dp1
S's'
p2
I5
sS't'
p3
I10
sacdatetime
date
p4
(S'\x07\xde\x04\x0b'
p5
tp6
Rp7
a.(lp0
(dp1
S's'
p2
I5
sS't'
p3
I10
sacdatetime
date
p4
(S'\x07\xde\x04\x0b'
p5
tp6
Rp7
a.(lp0
(dp1
S's'
p2
I5
sS't'
p3
I10
sacdatetime
date
p4
(S'\x07\xde\x04\x0b'
p5
tp6
Rp7
a.(lp0
(dp1
S's'
p2
I5
sS't'
p3
I11
sacdatetime
date
p4
(S'\x07\xde\x04\x0b'
p5
tp6
Rp7
a.(lp0
(dp1
S's'
p2
I5
sS't'
p3
I17
sacdatetime
date
p4
(S'\x07\xde\x04\x0b'
p5
tp6
Rp7
a.(lp0
(dp1
S's'
p2
I5
sS't'
p3
I23
sacdatetime
date
p4
(S'\x07\xde\x04\x0b'
p5
tp6
Rp7
a.(lp0
(dp1
S's'
p2
I5
sS't'
p3
I17
sacdatetime
date
p4
(S'\x07\xde\x04\x0b'
p5
tp6
Rp7
a.(lp0
(dp1
S's'
p2
I5
sS't'
p3
I11
sacdatetime
date
p4
(S'\x07\xde\x04\x0b'
p5
tp6
Rp7
a.(lp0
(dp1
S's'
p2
I10
sS't'
p3
I5
sacdatetime
date
p4
(S'\x07\xde\x04\x0b'
p5
tp6
Rp7
a.(lp0
(dp1
S's'
p2
I5
sS't'
p3
I0
sacdatetime
date
p4
(S'\x07\xde\x04\x0b'
p5
tp6
Rp7
a.(lp0
(dp1
S's'
p2
I4
sS't'
p3
I0
sacdatetime
date
p4
(S'\x07\xde\x04\x0c'
p5
tp6
Rp7
a.(lp0
(dp1
S's'
p2
I99
sS't'
p3
I0
sacdatetime
date
p4
(S'\x07\xde\x04\x0c'
p5
tp6
Rp7
a.(lp0
(dp1
S's'
p2
I99
sS't'
p3
I0
sacdatetime
date
p4
(S'\x07\xde\x04\x0c'
p5
tp6
Rp7
a.(lp0
(dp1
S's'
p2
I99
sS't'
p3
I0
sacdatetime
date
p4
(S'\x07\xde\x04\x0c'
p5
tp6
Rp7
a.(lp0
(dp1
S's'
p2
I99
sS't'
p3
I0
sacdatetime
date
p4
(S'\x07\xde\x04\x0c'
p5
tp6
Rp7
a.(lp0
(dp1
S's'
p2
I50
sS't'
p3
I0
sacdatetime
date
p4
(S'\x07\xde\x04\x0c'
p5
tp6
Rp7
a.(lp0
(dp1
S's'
p2
I50
sS't'
p3
I0
sacdatetime
date
p4
(S'\x07\xde\x04\x0c'
p5
tp6
Rp7
a.(lp0
(dp1
S's'
p2
I50
sS't'
p3
I6
sacdatetime
date
p4
(S'\x07\xde\x04\x0c'
p5
tp6
Rp7
a.(lp0
(dp1
S's'
p2
I50
sS't'
p3
I6
sacdatetime
date
p4
(S'\x07\xde\x04\x0c'
p5
tp6
Rp7
a.(lp0
(dp1
S's'
p2
I48
sS't'
p3
I6
sacdatetime
date
p4
(S'\x07\xde\x04\x0c'
p5
tp6
Rp7
a.(lp0
(dp1
S's'
p2
I48
sS't'
p3
I6
sacdatetime
date
p4
(S'\x07\xde\x04\x0c'
p5
tp6
Rp7
a.